target datalayout = "e-m:e-p270:32:32-p271:32:32-p272:64:64-i64:64-i128:128-f80:128-n8:16:32:64-S128"
target triple = "x86_64-pc-linux-gnu"

%"class.open3d::visualization::ViewControlWithEditing" = type <{ %"class.open3d::visualization::ViewControl.base", i32, [4 x i8], %"class.open3d::visualization::ViewParameters", i8, [15 x i8] }>
%"class.open3d::visualization::ViewControl.base" = type { ptr, i32, i32, %"class.open3d::geometry::AxisAlignedBoundingBox", %"class.Eigen::Matrix", %"class.Eigen::Matrix", %"class.Eigen::Matrix", %"class.Eigen::Matrix", %"class.Eigen::Matrix", double, double, double, double, double, double, double, double, double, [8 x i8], %"class.Eigen::Matrix.18", %"class.Eigen::Matrix.18", %"class.Eigen::Matrix.18", %"class.Eigen::Matrix.18", %"class.Eigen::Matrix", %"class.Eigen::Matrix", %"class.Eigen::Matrix", %"class.Eigen::Matrix", %"class.Eigen::Matrix", double, double }
%"class.open3d::geometry::AxisAlignedBoundingBox" = type { %"class.open3d::geometry::Geometry3D", %"class.Eigen::Matrix", %"class.Eigen::Matrix", %"class.Eigen::Matrix" }
%"class.open3d::geometry::Geometry3D" = type { %"class.open3d::geometry::Geometry" }
%"class.open3d::geometry::Geometry" = type { ptr, i32, i32, %"class.std::__cxx11::basic_string" }
%"class.std::__cxx11::basic_string" = type { %"struct.std::__cxx11::basic_string<char>::_Alloc_hider", i64, %union.anon }
%"struct.std::__cxx11::basic_string<char>::_Alloc_hider" = type { ptr }
%union.anon = type { i64, [8 x i8] }
%"class.Eigen::Matrix.18" = type { %"class.Eigen::PlainObjectBase.19" }
%"class.Eigen::PlainObjectBase.19" = type { %"class.Eigen::DenseStorage.26" }
%"class.Eigen::DenseStorage.26" = type { %"struct.Eigen::internal::plain_array.27" }
%"struct.Eigen::internal::plain_array.27" = type { [16 x float] }
%"class.Eigen::Matrix" = type { %"class.Eigen::PlainObjectBase" }
%"class.Eigen::PlainObjectBase" = type { %"class.Eigen::DenseStorage" }
%"class.Eigen::DenseStorage" = type { %"struct.Eigen::internal::plain_array" }
%"struct.Eigen::internal::plain_array" = type { [3 x double] }
%"class.open3d::visualization::ViewParameters" = type { %"class.open3d::utility::IJsonConvertible", double, double, %"class.Eigen::Matrix", %"class.Eigen::Matrix", %"class.Eigen::Matrix", %"class.Eigen::Matrix", %"class.Eigen::Matrix" }
%"class.open3d::utility::IJsonConvertible" = type { ptr }

; Function Attrs: mustprogress nounwind ssp uwtable
define linkonce_odr noundef zeroext i1 @_ZNK6open3d13visualization22ViewControlWithEditing8IsLockedEv(ptr noundef nonnull align 16 dereferenceable(881) %0) #0 comdat align 2 {
  %2 = alloca ptr, align 8
  store ptr %0, ptr %2, align 8, !tbaa !4
  %3 = load ptr, ptr %2, align 8
  %4 = getelementptr inbounds nuw %"class.open3d::visualization::ViewControlWithEditing", ptr %3, i32 0, i32 4
  %5 = load i8, ptr %4, align 16, !tbaa !177, !range !147, !noundef !148
  %6 = trunc i8 %5 to i1
  ret i1 %6
}

; Function Attrs: mustprogress ssp uwtable
define void @_ZN6open3d13visualization22ViewControlWithEditing9TranslateEdddd(ptr noundef nonnull align 16 dereferenceable(881) %0, double noundef %1, double noundef %2, double noundef %3, double noundef %4) unnamed_addr #1 align 2 {
  %6 = alloca ptr, align 8
  %7 = alloca double, align 8
  %8 = alloca double, align 8
  %9 = alloca double, align 8
  %10 = alloca double, align 8
  store ptr %0, ptr %6, align 8, !tbaa !4
  store double %1, ptr %7, align 8, !tbaa !34
  store double %2, ptr %8, align 8, !tbaa !34
  store double %3, ptr %9, align 8, !tbaa !34
  store double %4, ptr %10, align 8, !tbaa !34
  %11 = load ptr, ptr %6, align 8
  %12 = call noundef zeroext i1 @_ZNK6open3d13visualization22ViewControlWithEditing8IsLockedEv(ptr noundef nonnull align 16 dereferenceable(881) %11)
  br i1 %12, label %13, label %14

13:                                               ; preds = %5
  br label %28

14:                                               ; preds = %5
  %15 = getelementptr inbounds nuw %"class.open3d::visualization::ViewControlWithEditing", ptr %11, i32 0, i32 1
  %16 = load i32, ptr %15, align 8, !tbaa !9
  %17 = icmp eq i32 %16, 0
  br i1 %17, label %18, label %23

18:                                               ; preds = %14
  %19 = load double, ptr %7, align 8, !tbaa !34
  %20 = load double, ptr %8, align 8, !tbaa !34
  %21 = load double, ptr %9, align 8, !tbaa !34
  %22 = load double, ptr %10, align 8, !tbaa !34
  call void @_ZN6open3d13visualization11ViewControl9TranslateEdddd(ptr noundef nonnull align 16 dereferenceable(728) %11, double noundef %19, double noundef %20, double noundef %21, double noundef %22)
  br label %28

23:                                               ; preds = %14
  %24 = load double, ptr %7, align 8, !tbaa !34
  %25 = load double, ptr %8, align 8, !tbaa !34
  %26 = load double, ptr %9, align 8, !tbaa !34
  %27 = load double, ptr %10, align 8, !tbaa !34
  call void @_ZN6open3d13visualization11ViewControl9TranslateEdddd(ptr noundef nonnull align 16 dereferenceable(728) %11, double noundef %24, double noundef %25, double noundef %26, double noundef %27)
  br label %28

28:                                               ; preds = %13, %23, %18
  ret void
}